target datalayout = "e-m:e-p270:32:32-p271:32:32-p272:64:64-i64:64-i128:128-f80:128-n8:16:32:64-S128"
target triple = "x86_64-pc-linux-gnu"

%struct.quic_conn_id_st = type { i8, [20 x i8] }
%struct.rx_state = type { ptr, ptr, %struct.ossl_qrx_args_st, ptr, ptr, %struct.quic_conn_id_st, i32 }
%struct.ossl_qrx_args_st = type { ptr, ptr, ptr, i64, i64, [3 x i64], i8 }

; Function Attrs: inlinehint nounwind uwtable
define internal i32 @ossl_quic_conn_id_eq(ptr noundef %0, ptr noundef %1) #6 {
  %3 = alloca i32, align 4
  %4 = alloca ptr, align 8
  %5 = alloca ptr, align 8
  store ptr %0, ptr %4, align 8, !tbaa !69
  store ptr %1, ptr %5, align 8, !tbaa !69
  %6 = load ptr, ptr %4, align 8, !tbaa !69
  %7 = getelementptr inbounds nuw %struct.quic_conn_id_st, ptr %6, i32 0, i32 0
  %8 = load i8, ptr %7, align 1, !tbaa !74
  %9 = zext i8 %8 to i32
  %10 = load ptr, ptr %5, align 8, !tbaa !69
  %11 = getelementptr inbounds nuw %struct.quic_conn_id_st, ptr %10, i32 0, i32 0
  %12 = load i8, ptr %11, align 1, !tbaa !74
  %13 = zext i8 %12 to i32
  %14 = icmp ne i32 %9, %13
  br i1 %14, label %21, label %15

15:                                               ; preds = %2
  %16 = load ptr, ptr %4, align 8, !tbaa !69
  %17 = getelementptr inbounds nuw %struct.quic_conn_id_st, ptr %16, i32 0, i32 0
  %18 = load i8, ptr %17, align 1, !tbaa !74
  %19 = zext i8 %18 to i32
  %20 = icmp sgt i32 %19, 20
  br i1 %20, label %21, label %22

21:                                               ; preds = %15, %2
  store i32 0, ptr %3, align 4
  br label %36

22:                                               ; preds = %15
  %23 = load ptr, ptr %4, align 8, !tbaa !69
  %24 = getelementptr inbounds nuw %struct.quic_conn_id_st, ptr %23, i32 0, i32 1
  %25 = getelementptr inbounds [20 x i8], ptr %24, i64 0, i64 0
  %26 = load ptr, ptr %5, align 8, !tbaa !69
  %27 = getelementptr inbounds nuw %struct.quic_conn_id_st, ptr %26, i32 0, i32 1
  %28 = getelementptr inbounds [20 x i8], ptr %27, i64 0, i64 0
  %29 = load ptr, ptr %4, align 8, !tbaa !69
  %30 = getelementptr inbounds nuw %struct.quic_conn_id_st, ptr %29, i32 0, i32 0
  %31 = load i8, ptr %30, align 1, !tbaa !74
  %32 = zext i8 %31 to i64
  %33 = call i32 @memcmp(ptr noundef %25, ptr noundef %28, i64 noundef %32) #11
  %34 = icmp eq i32 %33, 0
  %35 = zext i1 %34 to i32
  store i32 %35, ptr %3, align 4
  br label %36

36:                                               ; preds = %22, %21
  %37 = load i32, ptr %3, align 4
  ret i32 %37
}

; Function Attrs: nounwind uwtable
define internal void @demux_default_handler(ptr noundef %0, ptr noundef %1, ptr noundef %2) #0 {
  %4 = alloca ptr, align 8
  %5 = alloca ptr, align 8
  %6 = alloca ptr, align 8
  %7 = alloca ptr, align 8
  %8 = alloca i32, align 4
  store ptr %0, ptr %4, align 8, !tbaa !67
  store ptr %1, ptr %5, align 8, !tbaa !66
  store ptr %2, ptr %6, align 8, !tbaa !69
  call void @llvm.lifetime.start.p0(i64 8, ptr %7) #9
  %9 = load ptr, ptr %5, align 8, !tbaa !66
  store ptr %9, ptr %7, align 8, !tbaa !55
  %10 = load ptr, ptr %6, align 8, !tbaa !69
  %11 = icmp eq ptr %10, null
  br i1 %11, label %18, label %12

12:                                               ; preds = %3
  %13 = load ptr, ptr %6, align 8, !tbaa !69
  %14 = load ptr, ptr %7, align 8, !tbaa !55
  %15 = getelementptr inbounds nuw %struct.rx_state, ptr %14, i32 0, i32 5
  %16 = call i32 @ossl_quic_conn_id_eq(ptr noundef %13, ptr noundef %15)
  %17 = icmp ne i32 %16, 0
  br i1 %17, label %19, label %18

18:                                               ; preds = %12, %3
  store i32 1, ptr %8, align 4
  br label %24

19:                                               ; preds = %12
  %20 = load ptr, ptr %7, align 8, !tbaa !55
  %21 = getelementptr inbounds nuw %struct.rx_state, ptr %20, i32 0, i32 1
  %22 = load ptr, ptr %21, align 8, !tbaa !38
  %23 = load ptr, ptr %4, align 8, !tbaa !67
  call void @ossl_qrx_inject_urxe(ptr noundef %22, ptr noundef %23)
  store i32 0, ptr %8, align 4
  br label %24

24:                                               ; preds = %19, %18
  call void @llvm.lifetime.end.p0(i64 8, ptr %7) #9
  %25 = load i32, ptr %8, align 4
  switch i32 %25, label %27 [
    i32 0, label %26
    i32 1, label %26
  ]

26:                                               ; preds = %24, %24
  ret void

27:                                               ; preds = %24
  unreachable
}