; Function Attrs: nounwind uwtable
define internal void @demux_default_handler(ptr noundef %0, ptr noundef readonly captures(none) %1, ptr noundef readonly captures(address_is_null) %2) #0 {
  %4 = icmp eq ptr %2, null
  br i1 %4, label %ossl_quic_conn_id_eq.exit.thread, label %5

5:                                                ; preds = %3
  %6 = getelementptr inbounds nuw i8, ptr %1, i64 104
  %7 = load i8, ptr %2, align 1, !tbaa !88
  %8 = load i8, ptr %6, align 1, !tbaa !88
  %.not.i = icmp ne i8 %7, %8
  %9 = icmp ugt i8 %7, 20
  %or.cond.i = or i1 %9, %.not.i
  br i1 %or.cond.i, label %ossl_quic_conn_id_eq.exit.thread, label %ossl_quic_conn_id_eq.exit

ossl_quic_conn_id_eq.exit:                        ; preds = %5
  %10 = getelementptr inbounds nuw i8, ptr %2, i64 1
  %11 = getelementptr inbounds nuw i8, ptr %1, i64 105
  %12 = zext nneg i8 %7 to i64
  %bcmp.i = tail call i32 @bcmp(ptr nonnull readonly %10, ptr nonnull readonly %11, i64 %12)
  %.not = icmp eq i32 %bcmp.i, 0
  br i1 %.not, label %13, label %ossl_quic_conn_id_eq.exit.thread

13:                                               ; preds = %ossl_quic_conn_id_eq.exit
  %14 = getelementptr inbounds nuw i8, ptr %1, i64 8
  %15 = load ptr, ptr %14, align 8, !tbaa !28
  tail call void @ossl_qrx_inject_urxe(ptr noundef %15, ptr noundef %0) #10
  br label %ossl_quic_conn_id_eq.exit.thread

ossl_quic_conn_id_eq.exit.thread:                 ; preds = %5, %3, %ossl_quic_conn_id_eq.exit, %13
  ret void
}